; Function Attrs: nounwind uwtable
define dso_local void @write_name_quoted_relative(ptr noundef %0, ptr noundef %1, ptr noundef %2, i32 noundef %3) local_unnamed_addr #0 {
  %5 = alloca %struct.strbuf, align 8
  call void @llvm.lifetime.start.p0(i64 24, ptr nonnull %5) #12
  call void @llvm.memcpy.p0.p0.i64(ptr noundef nonnull align 8 dereferenceable(24) %5, ptr noundef nonnull align 8 dereferenceable(24) @__const.quote_path.sb, i64 24, i1 false)
  %6 = call ptr @relative_path(ptr noundef %0, ptr noundef %1, ptr noundef nonnull %5) #12
  %.not.i = icmp eq i32 %3, 0
  br i1 %.not.i, label %9, label %7

7:                                                ; preds = %4
  %8 = call fastcc i64 @quote_c_style_counted(ptr noundef %6, i64 noundef -1, ptr noundef null, ptr noundef %2, i32 noundef 0)
  br label %write_name_quoted.exit

9:                                                ; preds = %4
  %10 = call i32 @fputs(ptr noundef %6, ptr noundef %2)
  br label %write_name_quoted.exit

write_name_quoted.exit:                           ; preds = %7, %9
  %11 = call i32 @fputc(i32 noundef %3, ptr noundef %2)
  call void @strbuf_release(ptr noundef nonnull %5) #12
  call void @llvm.lifetime.end.p0(i64 24, ptr nonnull %5) #12
  ret void
}